target datalayout = "e-m:e-p270:32:32-p271:32:32-p272:64:64-i64:64-i128:128-f80:128-n8:16:32:64-S128"
target triple = "x86_64-pc-linux-gnu"

%struct.evp_pkey_ctx_st = type { i32, ptr, ptr, ptr, ptr, %union.anon, %struct.anon.4, ptr, ptr, ptr, i32, i32, ptr, ptr, ptr, ptr, ptr, i8, ptr }
%union.anon = type { %struct.anon.0 }
%struct.anon.0 = type { ptr, ptr }
%struct.anon.4 = type { ptr, ptr, i64, i8 }
%struct.anon.1 = type { ptr, ptr }
%struct.anon.2 = type { ptr, ptr }
%struct.anon = type { ptr }
%struct.anon.3 = type { ptr, ptr }
%struct.CRYPTO_REF_COUNT = type { i32 }
%struct.evp_signature_st = type { i32, ptr, ptr, ptr, %struct.CRYPTO_REF_COUNT, ptr, ptr, ptr, ptr, ptr, ptr, ptr, ptr, ptr, ptr, ptr, ptr, ptr, ptr, ptr, ptr, ptr, ptr, ptr, ptr, ptr, ptr, ptr, ptr, ptr, ptr, ptr, ptr, ptr, ptr, ptr, ptr }
%struct.evp_keyexch_st = type { i32, ptr, ptr, ptr, %struct.CRYPTO_REF_COUNT, ptr, ptr, ptr, ptr, ptr, ptr, ptr, ptr, ptr, ptr }
%struct.evp_kem_st = type { i32, ptr, ptr, ptr, %struct.CRYPTO_REF_COUNT, ptr, ptr, ptr, ptr, ptr, ptr, ptr, ptr, ptr, ptr, ptr, ptr, ptr }
%struct.evp_asym_cipher_st = type { i32, ptr, ptr, ptr, %struct.CRYPTO_REF_COUNT, ptr, ptr, ptr, ptr, ptr, ptr, ptr, ptr, ptr, ptr, ptr }
%struct.evp_keymgmt_st = type { i32, i32, i32, ptr, ptr, ptr, %struct.CRYPTO_REF_COUNT, ptr, ptr, ptr, ptr, ptr, ptr, ptr, ptr, ptr, ptr, ptr, ptr, ptr, ptr, ptr, ptr, ptr, ptr, ptr, ptr, ptr, ptr, ptr, ptr, ptr, ptr }

; Function Attrs: nounwind uwtable
define ptr @EVP_PKEY_CTX_gettable_params(ptr noundef %0) #0 {
  %2 = alloca ptr, align 8
  %3 = alloca ptr, align 8
  %4 = alloca ptr, align 8
  %5 = alloca i32, align 4
  store ptr %0, ptr %3, align 8, !tbaa !18
  call void @llvm.lifetime.start.p0(i64 8, ptr %4) #8
  %6 = load ptr, ptr %3, align 8, !tbaa !18
  %7 = getelementptr inbounds nuw %struct.evp_pkey_ctx_st, ptr %6, i32 0, i32 0
  %8 = load i32, ptr %7, align 8, !tbaa !20
  %9 = and i32 %8, 2048
  %10 = icmp ne i32 %9, 0
  br i1 %10, label %11, label %44

11:                                               ; preds = %1
  %12 = load ptr, ptr %3, align 8, !tbaa !18
  %13 = getelementptr inbounds nuw %struct.evp_pkey_ctx_st, ptr %12, i32 0, i32 5
  %14 = getelementptr inbounds nuw %struct.anon.0, ptr %13, i32 0, i32 0
  %15 = load ptr, ptr %14, align 8, !tbaa !31
  %16 = icmp ne ptr %15, null
  br i1 %16, label %17, label %44

17:                                               ; preds = %11
  %18 = load ptr, ptr %3, align 8, !tbaa !18
  %19 = getelementptr inbounds nuw %struct.evp_pkey_ctx_st, ptr %18, i32 0, i32 5
  %20 = getelementptr inbounds nuw %struct.anon.0, ptr %19, i32 0, i32 0
  %21 = load ptr, ptr %20, align 8, !tbaa !31
  %22 = getelementptr inbounds nuw %struct.evp_keyexch_st, ptr %21, i32 0, i32 14
  %23 = load ptr, ptr %22, align 8, !tbaa !91
  %24 = icmp ne ptr %23, null
  br i1 %24, label %25, label %44

25:                                               ; preds = %17
  %26 = load ptr, ptr %3, align 8, !tbaa !18
  %27 = getelementptr inbounds nuw %struct.evp_pkey_ctx_st, ptr %26, i32 0, i32 5
  %28 = getelementptr inbounds nuw %struct.anon.0, ptr %27, i32 0, i32 0
  %29 = load ptr, ptr %28, align 8, !tbaa !31
  %30 = call ptr @EVP_KEYEXCH_get0_provider(ptr noundef %29)
  %31 = call ptr @ossl_provider_ctx(ptr noundef %30)
  store ptr %31, ptr %4, align 8, !tbaa !12
  %32 = load ptr, ptr %3, align 8, !tbaa !18
  %33 = getelementptr inbounds nuw %struct.evp_pkey_ctx_st, ptr %32, i32 0, i32 5
  %34 = getelementptr inbounds nuw %struct.anon.0, ptr %33, i32 0, i32 0
  %35 = load ptr, ptr %34, align 8, !tbaa !31
  %36 = getelementptr inbounds nuw %struct.evp_keyexch_st, ptr %35, i32 0, i32 14
  %37 = load ptr, ptr %36, align 8, !tbaa !91
  %38 = load ptr, ptr %3, align 8, !tbaa !18
  %39 = getelementptr inbounds nuw %struct.evp_pkey_ctx_st, ptr %38, i32 0, i32 5
  %40 = getelementptr inbounds nuw %struct.anon.0, ptr %39, i32 0, i32 1
  %41 = load ptr, ptr %40, align 8, !tbaa !31
  %42 = load ptr, ptr %4, align 8, !tbaa !12
  %43 = call ptr %37(ptr noundef %41, ptr noundef %42)
  store ptr %43, ptr %2, align 8
  store i32 1, ptr %5, align 4
  br label %197

44:                                               ; preds = %17, %11, %1
  %45 = load ptr, ptr %3, align 8, !tbaa !18
  %46 = getelementptr inbounds nuw %struct.evp_pkey_ctx_st, ptr %45, i32 0, i32 0
  %47 = load i32, ptr %46, align 8, !tbaa !20
  %48 = and i32 %47, 49648
  %49 = icmp ne i32 %48, 0
  br i1 %49, label %50, label %83

50:                                               ; preds = %44
  %51 = load ptr, ptr %3, align 8, !tbaa !18
  %52 = getelementptr inbounds nuw %struct.evp_pkey_ctx_st, ptr %51, i32 0, i32 5
  %53 = getelementptr inbounds nuw %struct.anon.1, ptr %52, i32 0, i32 0
  %54 = load ptr, ptr %53, align 8, !tbaa !31
  %55 = icmp ne ptr %54, null
  br i1 %55, label %56, label %83

56:                                               ; preds = %50
  %57 = load ptr, ptr %3, align 8, !tbaa !18
  %58 = getelementptr inbounds nuw %struct.evp_pkey_ctx_st, ptr %57, i32 0, i32 5
  %59 = getelementptr inbounds nuw %struct.anon.1, ptr %58, i32 0, i32 0
  %60 = load ptr, ptr %59, align 8, !tbaa !31
  %61 = getelementptr inbounds nuw %struct.evp_signature_st, ptr %60, i32 0, i32 29
  %62 = load ptr, ptr %61, align 8, !tbaa !92
  %63 = icmp ne ptr %62, null
  br i1 %63, label %64, label %83

64:                                               ; preds = %56
  %65 = load ptr, ptr %3, align 8, !tbaa !18
  %66 = getelementptr inbounds nuw %struct.evp_pkey_ctx_st, ptr %65, i32 0, i32 5
  %67 = getelementptr inbounds nuw %struct.anon.1, ptr %66, i32 0, i32 0
  %68 = load ptr, ptr %67, align 8, !tbaa !31
  %69 = call ptr @EVP_SIGNATURE_get0_provider(ptr noundef %68)
  %70 = call ptr @ossl_provider_ctx(ptr noundef %69)
  store ptr %70, ptr %4, align 8, !tbaa !12
  %71 = load ptr, ptr %3, align 8, !tbaa !18
  %72 = getelementptr inbounds nuw %struct.evp_pkey_ctx_st, ptr %71, i32 0, i32 5
  %73 = getelementptr inbounds nuw %struct.anon.1, ptr %72, i32 0, i32 0
  %74 = load ptr, ptr %73, align 8, !tbaa !31
  %75 = getelementptr inbounds nuw %struct.evp_signature_st, ptr %74, i32 0, i32 29
  %76 = load ptr, ptr %75, align 8, !tbaa !92
  %77 = load ptr, ptr %3, align 8, !tbaa !18
  %78 = getelementptr inbounds nuw %struct.evp_pkey_ctx_st, ptr %77, i32 0, i32 5
  %79 = getelementptr inbounds nuw %struct.anon.1, ptr %78, i32 0, i32 1
  %80 = load ptr, ptr %79, align 8, !tbaa !31
  %81 = load ptr, ptr %4, align 8, !tbaa !12
  %82 = call ptr %76(ptr noundef %80, ptr noundef %81)
  store ptr %82, ptr %2, align 8
  store i32 1, ptr %5, align 4
  br label %197

83:                                               ; preds = %56, %50, %44
  %84 = load ptr, ptr %3, align 8, !tbaa !18
  %85 = getelementptr inbounds nuw %struct.evp_pkey_ctx_st, ptr %84, i32 0, i32 0
  %86 = load i32, ptr %85, align 8, !tbaa !20
  %87 = and i32 %86, 1536
  %88 = icmp ne i32 %87, 0
  br i1 %88, label %89, label %122

89:                                               ; preds = %83
  %90 = load ptr, ptr %3, align 8, !tbaa !18
  %91 = getelementptr inbounds nuw %struct.evp_pkey_ctx_st, ptr %90, i32 0, i32 5
  %92 = getelementptr inbounds nuw %struct.anon.2, ptr %91, i32 0, i32 0
  %93 = load ptr, ptr %92, align 8, !tbaa !31
  %94 = icmp ne ptr %93, null
  br i1 %94, label %95, label %122

95:                                               ; preds = %89
  %96 = load ptr, ptr %3, align 8, !tbaa !18
  %97 = getelementptr inbounds nuw %struct.evp_pkey_ctx_st, ptr %96, i32 0, i32 5
  %98 = getelementptr inbounds nuw %struct.anon.2, ptr %97, i32 0, i32 0
  %99 = load ptr, ptr %98, align 8, !tbaa !31
  %100 = getelementptr inbounds nuw %struct.evp_asym_cipher_st, ptr %99, i32 0, i32 13
  %101 = load ptr, ptr %100, align 8, !tbaa !93
  %102 = icmp ne ptr %101, null
  br i1 %102, label %103, label %122

103:                                              ; preds = %95
  %104 = load ptr, ptr %3, align 8, !tbaa !18
  %105 = getelementptr inbounds nuw %struct.evp_pkey_ctx_st, ptr %104, i32 0, i32 5
  %106 = getelementptr inbounds nuw %struct.anon.2, ptr %105, i32 0, i32 0
  %107 = load ptr, ptr %106, align 8, !tbaa !31
  %108 = call ptr @EVP_ASYM_CIPHER_get0_provider(ptr noundef %107)
  %109 = call ptr @ossl_provider_ctx(ptr noundef %108)
  store ptr %109, ptr %4, align 8, !tbaa !12
  %110 = load ptr, ptr %3, align 8, !tbaa !18
  %111 = getelementptr inbounds nuw %struct.evp_pkey_ctx_st, ptr %110, i32 0, i32 5
  %112 = getelementptr inbounds nuw %struct.anon.2, ptr %111, i32 0, i32 0
  %113 = load ptr, ptr %112, align 8, !tbaa !31
  %114 = getelementptr inbounds nuw %struct.evp_asym_cipher_st, ptr %113, i32 0, i32 13
  %115 = load ptr, ptr %114, align 8, !tbaa !93
  %116 = load ptr, ptr %3, align 8, !tbaa !18
  %117 = getelementptr inbounds nuw %struct.evp_pkey_ctx_st, ptr %116, i32 0, i32 5
  %118 = getelementptr inbounds nuw %struct.anon.2, ptr %117, i32 0, i32 1
  %119 = load ptr, ptr %118, align 8, !tbaa !31
  %120 = load ptr, ptr %4, align 8, !tbaa !12
  %121 = call ptr %115(ptr noundef %119, ptr noundef %120)
  store ptr %121, ptr %2, align 8
  store i32 1, ptr %5, align 4
  br label %197

122:                                              ; preds = %95, %89, %83
  %123 = load ptr, ptr %3, align 8, !tbaa !18
  %124 = getelementptr inbounds nuw %struct.evp_pkey_ctx_st, ptr %123, i32 0, i32 0
  %125 = load i32, ptr %124, align 8, !tbaa !20
  %126 = and i32 %125, 12288
  %127 = icmp ne i32 %126, 0
  br i1 %127, label %128, label %161

128:                                              ; preds = %122
  %129 = load ptr, ptr %3, align 8, !tbaa !18
  %130 = getelementptr inbounds nuw %struct.evp_pkey_ctx_st, ptr %129, i32 0, i32 5
  %131 = getelementptr inbounds nuw %struct.anon.3, ptr %130, i32 0, i32 0
  %132 = load ptr, ptr %131, align 8, !tbaa !31
  %133 = icmp ne ptr %132, null
  br i1 %133, label %134, label %161

134:                                              ; preds = %128
  %135 = load ptr, ptr %3, align 8, !tbaa !18
  %136 = getelementptr inbounds nuw %struct.evp_pkey_ctx_st, ptr %135, i32 0, i32 5
  %137 = getelementptr inbounds nuw %struct.anon.3, ptr %136, i32 0, i32 0
  %138 = load ptr, ptr %137, align 8, !tbaa !31
  %139 = getelementptr inbounds nuw %struct.evp_kem_st, ptr %138, i32 0, i32 13
  %140 = load ptr, ptr %139, align 8, !tbaa !94
  %141 = icmp ne ptr %140, null
  br i1 %141, label %142, label %161

142:                                              ; preds = %134
  %143 = load ptr, ptr %3, align 8, !tbaa !18
  %144 = getelementptr inbounds nuw %struct.evp_pkey_ctx_st, ptr %143, i32 0, i32 5
  %145 = getelementptr inbounds nuw %struct.anon.3, ptr %144, i32 0, i32 0
  %146 = load ptr, ptr %145, align 8, !tbaa !31
  %147 = call ptr @EVP_KEM_get0_provider(ptr noundef %146)
  %148 = call ptr @ossl_provider_ctx(ptr noundef %147)
  store ptr %148, ptr %4, align 8, !tbaa !12
  %149 = load ptr, ptr %3, align 8, !tbaa !18
  %150 = getelementptr inbounds nuw %struct.evp_pkey_ctx_st, ptr %149, i32 0, i32 5
  %151 = getelementptr inbounds nuw %struct.anon.3, ptr %150, i32 0, i32 0
  %152 = load ptr, ptr %151, align 8, !tbaa !31
  %153 = getelementptr inbounds nuw %struct.evp_kem_st, ptr %152, i32 0, i32 13
  %154 = load ptr, ptr %153, align 8, !tbaa !94
  %155 = load ptr, ptr %3, align 8, !tbaa !18
  %156 = getelementptr inbounds nuw %struct.evp_pkey_ctx_st, ptr %155, i32 0, i32 5
  %157 = getelementptr inbounds nuw %struct.anon.3, ptr %156, i32 0, i32 1
  %158 = load ptr, ptr %157, align 8, !tbaa !31
  %159 = load ptr, ptr %4, align 8, !tbaa !12
  %160 = call ptr %154(ptr noundef %158, ptr noundef %159)
  store ptr %160, ptr %2, align 8
  store i32 1, ptr %5, align 4
  br label %197

161:                                              ; preds = %134, %128, %122
  %162 = load ptr, ptr %3, align 8, !tbaa !18
  %163 = getelementptr inbounds nuw %struct.evp_pkey_ctx_st, ptr %162, i32 0, i32 0
  %164 = load i32, ptr %163, align 8, !tbaa !20
  %165 = and i32 %164, 6
  %166 = icmp ne i32 %165, 0
  br i1 %166, label %167, label %196

167:                                              ; preds = %161
  %168 = load ptr, ptr %3, align 8, !tbaa !18
  %169 = getelementptr inbounds nuw %struct.evp_pkey_ctx_st, ptr %168, i32 0, i32 4
  %170 = load ptr, ptr %169, align 8, !tbaa !52
  %171 = icmp ne ptr %170, null
  br i1 %171, label %172, label %196

172:                                              ; preds = %167
  %173 = load ptr, ptr %3, align 8, !tbaa !18
  %174 = getelementptr inbounds nuw %struct.evp_pkey_ctx_st, ptr %173, i32 0, i32 4
  %175 = load ptr, ptr %174, align 8, !tbaa !52
  %176 = getelementptr inbounds nuw %struct.evp_keymgmt_st, ptr %175, i32 0, i32 16
  %177 = load ptr, ptr %176, align 8, !tbaa !95
  %178 = icmp ne ptr %177, null
  br i1 %178, label %179, label %196

179:                                              ; preds = %172
  %180 = load ptr, ptr %3, align 8, !tbaa !18
  %181 = getelementptr inbounds nuw %struct.evp_pkey_ctx_st, ptr %180, i32 0, i32 4
  %182 = load ptr, ptr %181, align 8, !tbaa !52
  %183 = call ptr @EVP_KEYMGMT_get0_provider(ptr noundef %182)
  %184 = call ptr @ossl_provider_ctx(ptr noundef %183)
  store ptr %184, ptr %4, align 8, !tbaa !12
  %185 = load ptr, ptr %3, align 8, !tbaa !18
  %186 = getelementptr inbounds nuw %struct.evp_pkey_ctx_st, ptr %185, i32 0, i32 4
  %187 = load ptr, ptr %186, align 8, !tbaa !52
  %188 = getelementptr inbounds nuw %struct.evp_keymgmt_st, ptr %187, i32 0, i32 16
  %189 = load ptr, ptr %188, align 8, !tbaa !95
  %190 = load ptr, ptr %3, align 8, !tbaa !18
  %191 = getelementptr inbounds nuw %struct.evp_pkey_ctx_st, ptr %190, i32 0, i32 5
  %192 = getelementptr inbounds nuw %struct.anon, ptr %191, i32 0, i32 0
  %193 = load ptr, ptr %192, align 8, !tbaa !31
  %194 = load ptr, ptr %4, align 8, !tbaa !12
  %195 = call ptr %189(ptr noundef %193, ptr noundef %194)
  store ptr %195, ptr %2, align 8
  store i32 1, ptr %5, align 4
  br label %197

196:                                              ; preds = %172, %167, %161
  store ptr null, ptr %2, align 8
  store i32 1, ptr %5, align 4
  br label %197

197:                                              ; preds = %196, %179, %142, %103, %64, %25
  call void @llvm.lifetime.end.p0(i64 8, ptr %4) #8
  %198 = load ptr, ptr %2, align 8
  ret ptr %198
}